; ModuleID = 'source-C-CXX/21/845.c'
source_filename = "source-C-CXX/21/845.c"
target datalayout = "e-m:e-p270:32:32-p271:32:32-p272:64:64-i64:64-f80:128-n8:16:32:64-S128"
target triple = "x86_64-pc-linux-gnu"

%struct._IO_FILE = type { i32, i8*, i8*, i8*, i8*, i8*, i8*, i8*, i8*, i8*, i8*, i8*, %struct._IO_marker*, %struct._IO_FILE*, i32, i32, i64, i16, i8, [1 x i8], i8*, i64, %struct._IO_codecvt*, %struct._IO_wide_data*, %struct._IO_FILE*, i8*, i64, i32, [20 x i8] }
%struct._IO_marker = type opaque
%struct._IO_codecvt = type opaque
%struct._IO_wide_data = type opaque

@.str = private unnamed_addr constant [3 x i8] c"%d\00", align 1
@.str.1 = private unnamed_addr constant [4 x i8] c"%d\0A\00", align 1
@.str.2 = private unnamed_addr constant [3 x i8] c"No\00", align 1
@stdin = external local_unnamed_addr global %struct._IO_FILE*, align 8

; Function Attrs: nofree nounwind sspstrong uwtable
define dso_local void @main() local_unnamed_addr #0 {
  %1 = alloca [300 x i32], align 16
  %2 = bitcast [300 x i32]* %1 to i8*
  call void @llvm.lifetime.start.p0i8(i64 1200, i8* nonnull %2) #3
  br label %3

3:                                                ; preds = %3, %0
  %4 = phi i64 [ %10, %3 ], [ 0, %0 ]
  %5 = getelementptr inbounds [300 x i32], [300 x i32]* %1, i64 0, i64 %4
  %6 = call i32 (i8*, ...) @__isoc99_scanf(i8* getelementptr inbounds ([3 x i8], [3 x i8]* @.str, i64 0, i64 0), i32* nonnull %5)
  %7 = load %struct._IO_FILE*, %struct._IO_FILE** @stdin, align 8, !tbaa !5
  %8 = call i32 @getc(%struct._IO_FILE* %7) #3
  %9 = icmp eq i32 %8, 10
  %10 = add nuw i64 %4, 1
  br i1 %9, label %11, label %3

11:                                               ; preds = %3
  %12 = trunc i64 %4 to i32
  %13 = icmp eq i32 %12, 0
  br i1 %13, label %27, label %14

14:                                               ; preds = %11
  %15 = getelementptr inbounds [300 x i32], [300 x i32]* %1, i64 0, i64 0
  br label %16

16:                                               ; preds = %14, %56
  %17 = phi i32 [ 0, %14 ], [ %57, %56 ]
  %18 = sub i32 %12, %17
  %19 = zext i32 %18 to i64
  %20 = icmp slt i32 %17, %12
  br i1 %20, label %21, label %56

21:                                               ; preds = %16
  %22 = load i32, i32* %15, align 16, !tbaa !9
  %23 = and i64 %19, 1
  %24 = icmp eq i32 %18, 1
  br i1 %24, label %45, label %25

25:                                               ; preds = %21
  %26 = and i64 %19, 4294967294
  br label %29

27:                                               ; preds = %56, %11
  %28 = and i64 %4, 4294967295
  br label %59

29:                                               ; preds = %76, %25
  %30 = phi i32 [ %22, %25 ], [ %77, %76 ]
  %31 = phi i64 [ 0, %25 ], [ %41, %76 ]
  %32 = phi i64 [ %26, %25 ], [ %78, %76 ]
  %33 = or i64 %31, 1
  %34 = getelementptr inbounds [300 x i32], [300 x i32]* %1, i64 0, i64 %33
  %35 = load i32, i32* %34, align 4, !tbaa !9
  %36 = icmp slt i32 %30, %35
  br i1 %36, label %37, label %39

37:                                               ; preds = %29
  %38 = getelementptr inbounds [300 x i32], [300 x i32]* %1, i64 0, i64 %31
  store i32 %35, i32* %38, align 8, !tbaa !9
  store i32 %30, i32* %34, align 4, !tbaa !9
  br label %39

39:                                               ; preds = %29, %37
  %40 = phi i32 [ %35, %29 ], [ %30, %37 ]
  %41 = add nuw nsw i64 %31, 2
  %42 = getelementptr inbounds [300 x i32], [300 x i32]* %1, i64 0, i64 %41
  %43 = load i32, i32* %42, align 8, !tbaa !9
  %44 = icmp slt i32 %40, %43
  br i1 %44, label %74, label %76

45:                                               ; preds = %76, %21
  %46 = phi i32 [ %22, %21 ], [ %77, %76 ]
  %47 = phi i64 [ 0, %21 ], [ %41, %76 ]
  %48 = icmp eq i64 %23, 0
  br i1 %48, label %56, label %49

49:                                               ; preds = %45
  %50 = add nuw nsw i64 %47, 1
  %51 = getelementptr inbounds [300 x i32], [300 x i32]* %1, i64 0, i64 %50
  %52 = load i32, i32* %51, align 4, !tbaa !9
  %53 = icmp slt i32 %46, %52
  br i1 %53, label %54, label %56

54:                                               ; preds = %49
  %55 = getelementptr inbounds [300 x i32], [300 x i32]* %1, i64 0, i64 %47
  store i32 %52, i32* %55, align 4, !tbaa !9
  store i32 %46, i32* %51, align 4, !tbaa !9
  br label %56

56:                                               ; preds = %45, %49, %54, %16
  %57 = add nuw nsw i32 %17, 1
  %58 = icmp eq i32 %57, %12
  br i1 %58, label %27, label %16, !llvm.loop !11

59:                                               ; preds = %27, %62
  %60 = phi i64 [ 0, %27 ], [ %65, %62 ]
  %61 = icmp eq i64 %60, %28
  br i1 %61, label %71, label %62

62:                                               ; preds = %59
  %63 = getelementptr inbounds [300 x i32], [300 x i32]* %1, i64 0, i64 %60
  %64 = load i32, i32* %63, align 4, !tbaa !9
  %65 = add nuw nsw i64 %60, 1
  %66 = getelementptr inbounds [300 x i32], [300 x i32]* %1, i64 0, i64 %65
  %67 = load i32, i32* %66, align 4, !tbaa !9
  %68 = icmp eq i32 %64, %67
  br i1 %68, label %59, label %69, !llvm.loop !13

69:                                               ; preds = %62
  %70 = call i32 (i8*, ...) @printf(i8* nonnull dereferenceable(1) getelementptr inbounds ([4 x i8], [4 x i8]* @.str.1, i64 0, i64 0), i32 %67)
  br label %73

71:                                               ; preds = %59
  %72 = call i32 (i8*, ...) @printf(i8* nonnull dereferenceable(1) getelementptr inbounds ([3 x i8], [3 x i8]* @.str.2, i64 0, i64 0))
  br label %73

73:                                               ; preds = %69, %71
  call void @llvm.lifetime.end.p0i8(i64 1200, i8* nonnull %2) #3
  ret void

74:                                               ; preds = %39
  %75 = getelementptr inbounds [300 x i32], [300 x i32]* %1, i64 0, i64 %33
  store i32 %43, i32* %75, align 4, !tbaa !9
  store i32 %40, i32* %42, align 8, !tbaa !9
  br label %76

76:                                               ; preds = %74, %39
  %77 = phi i32 [ %43, %39 ], [ %40, %74 ]
  %78 = add i64 %32, -2
  %79 = icmp eq i64 %78, 0
  br i1 %79, label %45, label %29, !llvm.loop !14
}

; Function Attrs: argmemonly mustprogress nofree nosync nounwind willreturn
declare void @llvm.lifetime.start.p0i8(i64 immarg, i8* nocapture) #1

; Function Attrs: nofree nounwind
declare noundef i32 @__isoc99_scanf(i8* nocapture noundef readonly, ...) local_unnamed_addr #2

; Function Attrs: nofree nounwind
declare noundef i32 @printf(i8* nocapture noundef readonly, ...) local_unnamed_addr #2

; Function Attrs: argmemonly mustprogress nofree nosync nounwind willreturn
declare void @llvm.lifetime.end.p0i8(i64 immarg, i8* nocapture) #1

; Function Attrs: nofree nounwind
declare noundef i32 @getc(%struct._IO_FILE* nocapture noundef) local_unnamed_addr #2


!llvm.module.flags = !{!0, !1, !2, !3}
!llvm.ident = !{!4}

!0 = !{i32 1, !"wchar_size", i32 4}
!1 = !{i32 7, !"PIC Level", i32 2}
!2 = !{i32 7, !"PIE Level", i32 2}
!3 = !{i32 7, !"uwtable", i32 1}
!4 = !{!"clang version 13.0.0"}
!5 = !{!6, !6, i64 0}
!6 = !{!"any pointer", !7, i64 0}
!7 = !{!"omnipotent char", !8, i64 0}
!8 = !{!"Simple C/C++ TBAA"}
!9 = !{!10, !10, i64 0}
!10 = !{!"int", !7, i64 0}
!11 = distinct !{!11, !12}
!12 = !{!"llvm.loop.mustprogress"}
!13 = distinct !{!13, !12}
!14 = distinct !{!14, !12}
